ARM GAS  C:\Users\mliha\AppData\Local\Temp\cclu3FoX.s 			page 1


   1              		.cpu cortex-m0
   2              		.fpu softvfp
   3              		.eabi_attribute 20, 1
   4              		.eabi_attribute 21, 1
   5              		.eabi_attribute 23, 3
   6              		.eabi_attribute 24, 1
   7              		.eabi_attribute 25, 1
   8              		.eabi_attribute 26, 1
   9              		.eabi_attribute 30, 6
  10              		.eabi_attribute 34, 0
  11              		.eabi_attribute 18, 4
  12              		.code	16
  13              		.file	"main.c"
  14              		.text
  15              	.Ltext0:
  16              		.cfi_sections	.debug_frame
  17              		.section	.rodata
  18              		.align	2
  19              	.LC0:
  20 0000 43593843 		.ascii	"CY8CKIT-042-BLE\000"
  20      4B49542D 
  20      3034322D 
  20      424C4500 
  21              		.align	2
  22              	.LC2:
  23 0010 54686520 		.ascii	"The symbol recieved is: \000"
  23      73796D62 
  23      6F6C2072 
  23      65636965 
  23      76656420 
  24 0029 000000   		.section	.text.main,"ax",%progbits
  25              		.align	2
  26              		.global	main
  27              		.code	16
  28              		.thumb_func
  29              		.type	main, %function
  30              	main:
  31              	.LFB35:
  32              		.file 1 ".\\main.c"
   1:.\main.c      **** /* ========================================
   2:.\main.c      ****  *
   3:.\main.c      ****  * Copyright YOUR COMPANY, THE YEAR
   4:.\main.c      ****  * All Rights Reserved
   5:.\main.c      ****  * UNPUBLISHED, LICENSED SOFTWARE.
   6:.\main.c      ****  *
   7:.\main.c      ****  * CONFIDENTIAL AND PROPRIETARY INFORMATION
   8:.\main.c      ****  * WHICH IS THE PROPERTY OF your company.
   9:.\main.c      ****  *
  10:.\main.c      ****  * ========================================
  11:.\main.c      **** */
  12:.\main.c      **** #include <project.h>
  13:.\main.c      **** 
  14:.\main.c      **** 
  15:.\main.c      **** int main()
  16:.\main.c      **** {
  33              		.loc 1 16 0
  34              		.cfi_startproc
ARM GAS  C:\Users\mliha\AppData\Local\Temp\cclu3FoX.s 			page 2


  35 0000 80B5     		push	{r7, lr}
  36              		.cfi_def_cfa_offset 8
  37              		.cfi_offset 7, -8
  38              		.cfi_offset 14, -4
  39 0002 82B0     		sub	sp, sp, #8
  40              		.cfi_def_cfa_offset 16
  41 0004 00AF     		add	r7, sp, #0
  42              		.cfi_def_cfa_register 7
  17:.\main.c      ****     uint8 ch;
  18:.\main.c      **** 
  19:.\main.c      ****     UART_Start();
  43              		.loc 1 19 0
  44 0006 FFF7FEFF 		bl	UART_Start
  20:.\main.c      ****     UART_UartPutString("CY8CKIT-042-BLE");
  45              		.loc 1 20 0
  46 000a 104B     		ldr	r3, .L4
  47 000c 181C     		mov	r0, r3
  48 000e FFF7FEFF 		bl	UART_UartPutString
  49              	.L3:
  21:.\main.c      ****   
  22:.\main.c      ****     for(;;)
  23:.\main.c      ****     { 
  24:.\main.c      ****         
  25:.\main.c      ****        
  26:.\main.c      ****         ch = UART_UartGetChar();
  50              		.loc 1 26 0
  51 0012 FFF7FEFF 		bl	UART_UartGetChar
  52 0016 021C     		mov	r2, r0
  53 0018 FB1D     		add	r3, r7, #7
  54 001a 1A70     		strb	r2, [r3]
  27:.\main.c      ****         if(0u != ch && !Pin_1_Read())
  55              		.loc 1 27 0
  56 001c FB1D     		add	r3, r7, #7
  57 001e 1B78     		ldrb	r3, [r3]
  58 0020 002B     		cmp	r3, #0
  59 0022 11D0     		beq	.L2
  60              		.loc 1 27 0 is_stmt 0 discriminator 1
  61 0024 FFF7FEFF 		bl	Pin_1_Read
  62 0028 031C     		mov	r3, r0
  63 002a 002B     		cmp	r3, #0
  64 002c 0CD1     		bne	.L2
  28:.\main.c      ****         {
  29:.\main.c      ****                 Pin_Red_Write(!Pin_1_Read);
  65              		.loc 1 29 0 is_stmt 1
  66 002e 0020     		mov	r0, #0
  67 0030 FFF7FEFF 		bl	Pin_Red_Write
  30:.\main.c      ****                 UART_UartPutString("The symbol recieved is: ");
  68              		.loc 1 30 0
  69 0034 064B     		ldr	r3, .L4+4
  70 0036 181C     		mov	r0, r3
  71 0038 FFF7FEFF 		bl	UART_UartPutString
  31:.\main.c      ****                 UART_UartPutChar(ch);
  72              		.loc 1 31 0
  73 003c FB1D     		add	r3, r7, #7
  74 003e 1B78     		ldrb	r3, [r3]
  75 0040 181C     		mov	r0, r3
  76 0042 FFF7FEFF 		bl	UART_SpiUartWriteTxData
ARM GAS  C:\Users\mliha\AppData\Local\Temp\cclu3FoX.s 			page 3


  32:.\main.c      ****          }
  33:.\main.c      ****           
  34:.\main.c      ****     }
  77              		.loc 1 34 0
  78 0046 E4E7     		b	.L3
  79              	.L2:
  80 0048 E3E7     		b	.L3
  81              	.L5:
  82 004a C046     		.align	2
  83              	.L4:
  84 004c 00000000 		.word	.LC0
  85 0050 10000000 		.word	.LC2
  86              		.cfi_endproc
  87              	.LFE35:
  88              		.size	main, .-main
  89              		.text
  90              	.Letext0:
  91              		.file 2 ".\\Generated_Source\\PSoC4/cytypes.h"